target datalayout = "e-m:e-p270:32:32-p271:32:32-p272:64:64-i64:64-i128:128-f80:128-n8:16:32:64-S128"
target triple = "x86_64-pc-linux-gnu"

%"class.cvc5::internal::TypeNode" = type { ptr }
%"class.std::vector.65" = type { %"struct.std::_Vector_base.66" }
%"struct.std::_Vector_base.66" = type { %"struct.std::_Vector_base<unsigned int, std::allocator<unsigned int>>::_Vector_impl" }
%"struct.std::_Vector_base<unsigned int, std::allocator<unsigned int>>::_Vector_impl" = type { %"struct.std::_Vector_base<unsigned int, std::allocator<unsigned int>>::_Vector_impl_data" }
%"struct.std::_Vector_base<unsigned int, std::allocator<unsigned int>>::_Vector_impl_data" = type { ptr, ptr, ptr }
%"class.cvc5::internal::theory::quantifiers::TermGenerator" = type { %"class.cvc5::internal::TypeNode", i32, i32, i32, i32, %"class.std::vector.65", i32, i32, i32, %"class.std::vector.1043", %"class.std::vector.1043" }
%"class.std::vector.1043" = type { %"struct.std::_Vector_base.1044" }
%"struct.std::_Vector_base.1044" = type { %"struct.std::_Vector_base<std::_Rb_tree_iterator<std::pair<const cvc5::internal::NodeTemplate<false>, cvc5::internal::NodeTemplateTrie<false>>>, std::allocator<std::_Rb_tree_iterator<std::pair<const cvc5::internal::NodeTemplate<false>, cvc5::internal::NodeTemplateTrie<false>>>>>::_Vector_impl" }
%"struct.std::_Vector_base<std::_Rb_tree_iterator<std::pair<const cvc5::internal::NodeTemplate<false>, cvc5::internal::NodeTemplateTrie<false>>>, std::allocator<std::_Rb_tree_iterator<std::pair<const cvc5::internal::NodeTemplate<false>, cvc5::internal::NodeTemplateTrie<false>>>>>::_Vector_impl" = type { %"struct.std::_Vector_base<std::_Rb_tree_iterator<std::pair<const cvc5::internal::NodeTemplate<false>, cvc5::internal::NodeTemplateTrie<false>>>, std::allocator<std::_Rb_tree_iterator<std::pair<const cvc5::internal::NodeTemplate<false>, cvc5::internal::NodeTemplateTrie<false>>>>>::_Vector_impl_data" }
%"struct.std::_Vector_base<std::_Rb_tree_iterator<std::pair<const cvc5::internal::NodeTemplate<false>, cvc5::internal::NodeTemplateTrie<false>>>, std::allocator<std::_Rb_tree_iterator<std::pair<const cvc5::internal::NodeTemplate<false>, cvc5::internal::NodeTemplateTrie<false>>>>>::_Vector_impl_data" = type { ptr, ptr, ptr }

; Function Attrs: mustprogress nounwind uwtable
define linkonce_odr hidden void @_ZNSt12_Destroy_auxILb1EE9__destroyIPSt17_Rb_tree_iteratorISt4pairIKN4cvc58internal12NodeTemplateILb0EEENS5_16NodeTemplateTrieILb0EEEEEEEvT_SE_(ptr noundef %0, ptr noundef %1) #8 comdat align 2 {
  %3 = alloca ptr, align 8
  %4 = alloca ptr, align 8
  store ptr %0, ptr %3, align 8, !tbaa !952
  store ptr %1, ptr %4, align 8, !tbaa !952
  ret void
}

; Function Attrs: inlinehint mustprogress uwtable
define linkonce_odr hidden void @_ZSt8_DestroyIPSt17_Rb_tree_iteratorISt4pairIKN4cvc58internal12NodeTemplateILb0EEENS3_16NodeTemplateTrieILb0EEEEEEvT_SC_(ptr noundef %0, ptr noundef %1) #5 comdat {
  %3 = alloca ptr, align 8
  %4 = alloca ptr, align 8
  store ptr %0, ptr %3, align 8, !tbaa !952
  store ptr %1, ptr %4, align 8, !tbaa !952
  %5 = load ptr, ptr %3, align 8, !tbaa !952
  %6 = load ptr, ptr %4, align 8, !tbaa !952
  call void @_ZNSt12_Destroy_auxILb1EE9__destroyIPSt17_Rb_tree_iteratorISt4pairIKN4cvc58internal12NodeTemplateILb0EEENS5_16NodeTemplateTrieILb0EEEEEEEvT_SE_(ptr noundef %5, ptr noundef %6)
  ret void
}

; Function Attrs: noinline noreturn nounwind uwtable
define linkonce_odr hidden void @__clang_call_terminate(ptr noundef %0) #14 comdat {
  %2 = call ptr @__cxa_begin_catch(ptr %0) #3
  call void @_ZSt9terminatev() #22
  unreachable
}

; Function Attrs: inlinehint mustprogress uwtable
define linkonce_odr hidden void @_ZSt8_DestroyIPSt17_Rb_tree_iteratorISt4pairIKN4cvc58internal12NodeTemplateILb0EEENS3_16NodeTemplateTrieILb0EEEEESA_EvT_SC_RSaIT0_E(ptr noundef %0, ptr noundef %1, ptr noundef nonnull align 1 dereferenceable(1) %2) #5 comdat {
  %4 = alloca ptr, align 8
  %5 = alloca ptr, align 8
  %6 = alloca ptr, align 8
  store ptr %0, ptr %4, align 8, !tbaa !952
  store ptr %1, ptr %5, align 8, !tbaa !952
  store ptr %2, ptr %6, align 8, !tbaa !1343
  %7 = load ptr, ptr %4, align 8, !tbaa !952
  %8 = load ptr, ptr %5, align 8, !tbaa !952
  call void @_ZSt8_DestroyIPSt17_Rb_tree_iteratorISt4pairIKN4cvc58internal12NodeTemplateILb0EEENS3_16NodeTemplateTrieILb0EEEEEEvT_SC_(ptr noundef %7, ptr noundef %8)
  ret void
}

; Function Attrs: mustprogress nounwind uwtable
define linkonce_odr hidden noundef nonnull align 1 dereferenceable(1) ptr @_ZNSt12_Vector_baseISt17_Rb_tree_iteratorISt4pairIKN4cvc58internal12NodeTemplateILb0EEENS3_16NodeTemplateTrieILb0EEEEESaISA_EE19_M_get_Tp_allocatorEv(ptr noundef nonnull align 8 dereferenceable(24) %0) #8 comdat align 2 {
  %2 = alloca ptr, align 8
  store ptr %0, ptr %2, align 8, !tbaa !1345
  %3 = load ptr, ptr %2, align 8
  %4 = getelementptr inbounds nuw %"struct.std::_Vector_base.1044", ptr %3, i32 0, i32 0
  ret ptr %4
}

; Function Attrs: mustprogress nounwind uwtable
define linkonce_odr hidden void @_ZNSt6vectorISt17_Rb_tree_iteratorISt4pairIKN4cvc58internal12NodeTemplateILb0EEENS3_16NodeTemplateTrieILb0EEEEESaISA_EE15_M_erase_at_endEPSA_(ptr noundef nonnull align 8 dereferenceable(24) %0, ptr noundef %1) #8 comdat align 2 personality ptr @__gxx_personality_v0 {
  %3 = alloca ptr, align 8
  %4 = alloca ptr, align 8
  %5 = alloca i64, align 8
  store ptr %0, ptr %3, align 8, !tbaa !939
  store ptr %1, ptr %4, align 8, !tbaa !952
  %6 = load ptr, ptr %3, align 8
  call void @llvm.lifetime.start.p0(i64 8, ptr %5) #3
  %7 = getelementptr inbounds nuw %"struct.std::_Vector_base.1044", ptr %6, i32 0, i32 0
  %8 = getelementptr inbounds nuw %"struct.std::_Vector_base<std::_Rb_tree_iterator<std::pair<const cvc5::internal::NodeTemplate<false>, cvc5::internal::NodeTemplateTrie<false>>>, std::allocator<std::_Rb_tree_iterator<std::pair<const cvc5::internal::NodeTemplate<false>, cvc5::internal::NodeTemplateTrie<false>>>>>::_Vector_impl_data", ptr %7, i32 0, i32 1
  %9 = load ptr, ptr %8, align 8, !tbaa !947
  %10 = load ptr, ptr %4, align 8, !tbaa !952
  %11 = ptrtoint ptr %9 to i64
  %12 = ptrtoint ptr %10 to i64
  %13 = sub i64 %11, %12
  %14 = sdiv exact i64 %13, 8
  store i64 %14, ptr %5, align 8, !tbaa !35
  %15 = load i64, ptr %5, align 8, !tbaa !35
  %16 = icmp ne i64 %15, 0
  br i1 %16, label %17, label %27

17:                                               ; preds = %2
  %18 = load ptr, ptr %4, align 8, !tbaa !952
  %19 = getelementptr inbounds nuw %"struct.std::_Vector_base.1044", ptr %6, i32 0, i32 0
  %20 = getelementptr inbounds nuw %"struct.std::_Vector_base<std::_Rb_tree_iterator<std::pair<const cvc5::internal::NodeTemplate<false>, cvc5::internal::NodeTemplateTrie<false>>>, std::allocator<std::_Rb_tree_iterator<std::pair<const cvc5::internal::NodeTemplate<false>, cvc5::internal::NodeTemplateTrie<false>>>>>::_Vector_impl_data", ptr %19, i32 0, i32 1
  %21 = load ptr, ptr %20, align 8, !tbaa !947
  %22 = call noundef nonnull align 1 dereferenceable(1) ptr @_ZNSt12_Vector_baseISt17_Rb_tree_iteratorISt4pairIKN4cvc58internal12NodeTemplateILb0EEENS3_16NodeTemplateTrieILb0EEEEESaISA_EE19_M_get_Tp_allocatorEv(ptr noundef nonnull align 8 dereferenceable(24) %6) #3
  invoke void @_ZSt8_DestroyIPSt17_Rb_tree_iteratorISt4pairIKN4cvc58internal12NodeTemplateILb0EEENS3_16NodeTemplateTrieILb0EEEEESA_EvT_SC_RSaIT0_E(ptr noundef %18, ptr noundef %21, ptr noundef nonnull align 1 dereferenceable(1) %22)
          to label %23 unwind label %28

23:                                               ; preds = %17
  %24 = load ptr, ptr %4, align 8, !tbaa !952
  %25 = getelementptr inbounds nuw %"struct.std::_Vector_base.1044", ptr %6, i32 0, i32 0
  %26 = getelementptr inbounds nuw %"struct.std::_Vector_base<std::_Rb_tree_iterator<std::pair<const cvc5::internal::NodeTemplate<false>, cvc5::internal::NodeTemplateTrie<false>>>, std::allocator<std::_Rb_tree_iterator<std::pair<const cvc5::internal::NodeTemplate<false>, cvc5::internal::NodeTemplateTrie<false>>>>>::_Vector_impl_data", ptr %25, i32 0, i32 1
  store ptr %24, ptr %26, align 8, !tbaa !947
  br label %27

27:                                               ; preds = %23, %2
  call void @llvm.lifetime.end.p0(i64 8, ptr %5) #3
  ret void

28:                                               ; preds = %17
  %29 = landingpad { ptr, i32 }
          catch ptr null
  %30 = extractvalue { ptr, i32 } %29, 0
  call void @__clang_call_terminate(ptr %30) #22
  unreachable
}

; Function Attrs: mustprogress nounwind uwtable
define linkonce_odr hidden void @_ZNSt6vectorISt17_Rb_tree_iteratorISt4pairIKN4cvc58internal12NodeTemplateILb0EEENS3_16NodeTemplateTrieILb0EEEEESaISA_EE5clearEv(ptr noundef nonnull align 8 dereferenceable(24) %0) #8 comdat align 2 {
  %2 = alloca ptr, align 8
  store ptr %0, ptr %2, align 8, !tbaa !939
  %3 = load ptr, ptr %2, align 8
  %4 = getelementptr inbounds nuw %"struct.std::_Vector_base.1044", ptr %3, i32 0, i32 0
  %5 = getelementptr inbounds nuw %"struct.std::_Vector_base<std::_Rb_tree_iterator<std::pair<const cvc5::internal::NodeTemplate<false>, cvc5::internal::NodeTemplateTrie<false>>>, std::allocator<std::_Rb_tree_iterator<std::pair<const cvc5::internal::NodeTemplate<false>, cvc5::internal::NodeTemplateTrie<false>>>>>::_Vector_impl_data", ptr %4, i32 0, i32 0
  %6 = load ptr, ptr %5, align 8, !tbaa !941
  call void @_ZNSt6vectorISt17_Rb_tree_iteratorISt4pairIKN4cvc58internal12NodeTemplateILb0EEENS3_16NodeTemplateTrieILb0EEEEESaISA_EE15_M_erase_at_endEPSA_(ptr noundef nonnull align 8 dereferenceable(24) %3, ptr noundef %6) #3
  ret void
}

; Function Attrs: mustprogress nounwind uwtable
define hidden void @_ZN4cvc58internal6theory11quantifiers13TermGenerator13resetMatchingEPNS2_10TermGenEnvENS0_12NodeTemplateILb0EEEj(ptr noundef nonnull align 8 dereferenceable(112) %0, ptr noundef %1, ptr noundef %2, i32 noundef %3) #8 align 2 {
  %5 = alloca ptr, align 8
  %6 = alloca ptr, align 8
  %7 = alloca ptr, align 8
  %8 = alloca i32, align 4
  store ptr %0, ptr %5, align 8, !tbaa !903
  store ptr %1, ptr %6, align 8, !tbaa !350
  store ptr %2, ptr %7, align 8, !tbaa !10
  store i32 %3, ptr %8, align 4, !tbaa !12
  %9 = load ptr, ptr %5, align 8
  %10 = getelementptr inbounds nuw %"class.cvc5::internal::theory::quantifiers::TermGenerator", ptr %9, i32 0, i32 6
  store i32 0, ptr %10, align 8, !tbaa !936
  %11 = getelementptr inbounds nuw %"class.cvc5::internal::theory::quantifiers::TermGenerator", ptr %9, i32 0, i32 7
  store i32 0, ptr %11, align 4, !tbaa !937
  %12 = getelementptr inbounds nuw %"class.cvc5::internal::theory::quantifiers::TermGenerator", ptr %9, i32 0, i32 9
  call void @_ZNSt6vectorISt17_Rb_tree_iteratorISt4pairIKN4cvc58internal12NodeTemplateILb0EEENS3_16NodeTemplateTrieILb0EEEEESaISA_EE5clearEv(ptr noundef nonnull align 8 dereferenceable(24) %12) #3
  %13 = getelementptr inbounds nuw %"class.cvc5::internal::theory::quantifiers::TermGenerator", ptr %9, i32 0, i32 10
  call void @_ZNSt6vectorISt17_Rb_tree_iteratorISt4pairIKN4cvc58internal12NodeTemplateILb0EEENS3_16NodeTemplateTrieILb0EEEEESaISA_EE5clearEv(ptr noundef nonnull align 8 dereferenceable(24) %13) #3
  %14 = load i32, ptr %8, align 4, !tbaa !12
  %15 = getelementptr inbounds nuw %"class.cvc5::internal::theory::quantifiers::TermGenerator", ptr %9, i32 0, i32 8
  store i32 %14, ptr %15, align 8, !tbaa !938
  ret void
}