; Function Attrs: mustprogress nofree norecurse nosync nounwind willreturn memory(argmem: readwrite) uwtable
define hidden void @_ZN4cvc58internal6theory11quantifiers13TermGenerator13resetMatchingEPNS2_10TermGenEnvENS0_12NodeTemplateILb0EEEj(ptr noundef nonnull align 8 captures(none) dereferenceable(112) initializes((48, 60)) %0, ptr noundef readnone captures(none) %1, ptr noundef readnone captures(none) %2, i32 noundef %3) local_unnamed_addr #14 align 2 personality ptr @__gxx_personality_v0 {
  %5 = getelementptr inbounds nuw i8, ptr %0, i64 48
  store i32 0, ptr %5, align 8, !tbaa !733
  %6 = getelementptr inbounds nuw i8, ptr %0, i64 52
  store i32 0, ptr %6, align 4, !tbaa !740
  %7 = getelementptr inbounds nuw i8, ptr %0, i64 64
  %8 = load ptr, ptr %7, align 8, !tbaa !741
  %9 = getelementptr inbounds nuw i8, ptr %0, i64 72
  %10 = load ptr, ptr %9, align 8, !tbaa !742
  %.not.i.i = icmp eq ptr %10, %8
  br i1 %.not.i.i, label %_ZNSt6vectorISt17_Rb_tree_iteratorISt4pairIKN4cvc58internal12NodeTemplateILb0EEENS3_16NodeTemplateTrieILb0EEEEESaISA_EE5clearEv.exit, label %11

11:                                               ; preds = %4
  store ptr %8, ptr %9, align 8, !tbaa !742
  br label %_ZNSt6vectorISt17_Rb_tree_iteratorISt4pairIKN4cvc58internal12NodeTemplateILb0EEENS3_16NodeTemplateTrieILb0EEEEESaISA_EE5clearEv.exit

_ZNSt6vectorISt17_Rb_tree_iteratorISt4pairIKN4cvc58internal12NodeTemplateILb0EEENS3_16NodeTemplateTrieILb0EEEEESaISA_EE5clearEv.exit: ; preds = %4, %11
  %12 = getelementptr inbounds nuw i8, ptr %0, i64 88
  %13 = load ptr, ptr %12, align 8, !tbaa !741
  %14 = getelementptr inbounds nuw i8, ptr %0, i64 96
  %15 = load ptr, ptr %14, align 8, !tbaa !742
  %.not.i.i1 = icmp eq ptr %15, %13
  br i1 %.not.i.i1, label %_ZNSt6vectorISt17_Rb_tree_iteratorISt4pairIKN4cvc58internal12NodeTemplateILb0EEENS3_16NodeTemplateTrieILb0EEEEESaISA_EE5clearEv.exit2, label %16

16:                                               ; preds = %_ZNSt6vectorISt17_Rb_tree_iteratorISt4pairIKN4cvc58internal12NodeTemplateILb0EEENS3_16NodeTemplateTrieILb0EEEEESaISA_EE5clearEv.exit
  store ptr %13, ptr %14, align 8, !tbaa !742
  br label %_ZNSt6vectorISt17_Rb_tree_iteratorISt4pairIKN4cvc58internal12NodeTemplateILb0EEENS3_16NodeTemplateTrieILb0EEEEESaISA_EE5clearEv.exit2

_ZNSt6vectorISt17_Rb_tree_iteratorISt4pairIKN4cvc58internal12NodeTemplateILb0EEENS3_16NodeTemplateTrieILb0EEEEESaISA_EE5clearEv.exit2: ; preds = %_ZNSt6vectorISt17_Rb_tree_iteratorISt4pairIKN4cvc58internal12NodeTemplateILb0EEENS3_16NodeTemplateTrieILb0EEEEESaISA_EE5clearEv.exit, %16
  %17 = getelementptr inbounds nuw i8, ptr %0, i64 56
  store i32 %3, ptr %17, align 8, !tbaa !743
  ret void
}